; Function Attrs: nounwind uwtable
define ptr @RSA_setup_blinding(ptr noundef readonly captures(none) %0, ptr noundef %1) local_unnamed_addr #0 {
  %3 = icmp eq ptr %1, null
  br i1 %3, label %4, label %9

4:                                                ; preds = %2
  %5 = getelementptr inbounds nuw i8, ptr %0, i64 8
  %6 = load ptr, ptr %5, align 8, !tbaa !32
  %7 = tail call ptr @BN_CTX_new_ex(ptr noundef %6) #3
  %8 = icmp eq ptr %7, null
  br i1 %8, label %65, label %9

9:                                                ; preds = %2, %4
  %.035 = phi ptr [ %7, %4 ], [ %1, %2 ]
  tail call void @BN_CTX_start(ptr noundef nonnull %.035) #3
  %10 = tail call ptr @BN_CTX_get(ptr noundef nonnull %.035) #3
  %11 = icmp eq ptr %10, null
  br i1 %11, label %12, label %13

12:                                               ; preds = %9
  tail call void @ERR_new() #3
  tail call void @ERR_set_debug(ptr noundef nonnull @.str, i32 noundef 132, ptr noundef nonnull @__func__.RSA_setup_blinding) #3
  tail call void (i32, i32, ptr, ...) @ERR_set_error(i32 noundef 4, i32 noundef 524291, ptr noundef null) #3
  br label %59

13:                                               ; preds = %9
  %14 = getelementptr inbounds nuw i8, ptr %0, i64 48
  %15 = load ptr, ptr %14, align 8, !tbaa !33
  %16 = icmp eq ptr %15, null
  br i1 %16, label %17, label %42

17:                                               ; preds = %13
  %18 = getelementptr inbounds nuw i8, ptr %0, i64 56
  %19 = load ptr, ptr %18, align 8, !tbaa !34
  %20 = getelementptr inbounds nuw i8, ptr %0, i64 64
  %21 = load ptr, ptr %20, align 8, !tbaa !35
  %22 = getelementptr inbounds nuw i8, ptr %0, i64 72
  %23 = load ptr, ptr %22, align 8, !tbaa !36
  %24 = icmp eq ptr %19, null
  %25 = icmp eq ptr %21, null
  %or.cond.i = or i1 %24, %25
  %26 = icmp eq ptr %23, null
  %or.cond3.i = or i1 %or.cond.i, %26
  br i1 %or.cond3.i, label %rsa_get_public_exp.exit.thread, label %27

27:                                               ; preds = %17
  tail call void @BN_CTX_start(ptr noundef nonnull %.035) #3
  %28 = tail call ptr @BN_CTX_get(ptr noundef nonnull %.035) #3
  %29 = tail call ptr @BN_CTX_get(ptr noundef nonnull %.035) #3
  %30 = tail call ptr @BN_CTX_get(ptr noundef nonnull %.035) #3
  %31 = icmp eq ptr %30, null
  br i1 %31, label %rsa_get_public_exp.exit.thread48, label %32

32:                                               ; preds = %27
  %33 = tail call ptr @BN_value_one() #3
  %34 = tail call i32 @BN_sub(ptr noundef %29, ptr noundef nonnull %21, ptr noundef %33) #3
  %.not.i = icmp eq i32 %34, 0
  br i1 %.not.i, label %rsa_get_public_exp.exit.thread48, label %35

35:                                               ; preds = %32
  %36 = tail call ptr @BN_value_one() #3
  %37 = tail call i32 @BN_sub(ptr noundef nonnull %30, ptr noundef nonnull %23, ptr noundef %36) #3
  %.not30.i = icmp eq i32 %37, 0
  br i1 %.not30.i, label %rsa_get_public_exp.exit.thread48, label %38

38:                                               ; preds = %35
  %39 = tail call i32 @BN_mul(ptr noundef %28, ptr noundef %29, ptr noundef nonnull %30, ptr noundef nonnull %.035) #3
  %.not31.i = icmp eq i32 %39, 0
  br i1 %.not31.i, label %rsa_get_public_exp.exit.thread48, label %rsa_get_public_exp.exit

rsa_get_public_exp.exit.thread48:                 ; preds = %27, %38, %35, %32
  tail call void @BN_CTX_end(ptr noundef nonnull %.035) #3
  br label %rsa_get_public_exp.exit.thread

rsa_get_public_exp.exit:                          ; preds = %38
  %40 = tail call ptr @BN_mod_inverse(ptr noundef null, ptr noundef nonnull %19, ptr noundef %28, ptr noundef nonnull %.035) #3
  tail call void @BN_CTX_end(ptr noundef nonnull %.035) #3
  %41 = icmp eq ptr %40, null
  br i1 %41, label %rsa_get_public_exp.exit.thread, label %42

rsa_get_public_exp.exit.thread:                   ; preds = %17, %rsa_get_public_exp.exit.thread48, %rsa_get_public_exp.exit
  tail call void @ERR_new() #3
  tail call void @ERR_set_debug(ptr noundef nonnull @.str, i32 noundef 139, ptr noundef nonnull @__func__.RSA_setup_blinding) #3
  tail call void (i32, i32, ptr, ...) @ERR_set_error(i32 noundef 4, i32 noundef 140, ptr noundef null) #3
  br label %59

42:                                               ; preds = %13, %rsa_get_public_exp.exit
  %.137 = phi ptr [ %40, %rsa_get_public_exp.exit ], [ %15, %13 ]
  %43 = tail call ptr @BN_new() #3
  %44 = icmp eq ptr %43, null
  br i1 %44, label %45, label %46

45:                                               ; preds = %42
  tail call void @ERR_new() #3
  tail call void @ERR_set_debug(ptr noundef nonnull @.str, i32 noundef 150, ptr noundef nonnull @__func__.RSA_setup_blinding) #3
  tail call void (i32, i32, ptr, ...) @ERR_set_error(i32 noundef 4, i32 noundef 524291, ptr noundef null) #3
  br label %59

46:                                               ; preds = %42
  %47 = getelementptr inbounds nuw i8, ptr %0, i64 40
  %48 = load ptr, ptr %47, align 8, !tbaa !3
  tail call void @BN_with_flags(ptr noundef nonnull %43, ptr noundef %48, i32 noundef 4) #3
  %49 = getelementptr inbounds nuw i8, ptr %0, i64 24
  %50 = load ptr, ptr %49, align 8, !tbaa !22
  %51 = getelementptr inbounds nuw i8, ptr %50, i64 48
  %52 = load ptr, ptr %51, align 8, !tbaa !37
  %53 = getelementptr inbounds nuw i8, ptr %0, i64 168
  %54 = load ptr, ptr %53, align 8, !tbaa !38
  %55 = tail call ptr @BN_BLINDING_create_param(ptr noundef null, ptr noundef nonnull %.137, ptr noundef nonnull %43, ptr noundef nonnull %.035, ptr noundef %52, ptr noundef %54) #3
  tail call void @BN_free(ptr noundef nonnull %43) #3
  %56 = icmp eq ptr %55, null
  br i1 %56, label %57, label %58

57:                                               ; preds = %46
  tail call void @ERR_new() #3
  tail call void @ERR_set_debug(ptr noundef nonnull @.str, i32 noundef 161, ptr noundef nonnull @__func__.RSA_setup_blinding) #3
  tail call void (i32, i32, ptr, ...) @ERR_set_error(i32 noundef 4, i32 noundef 524291, ptr noundef null) #3
  br label %59

58:                                               ; preds = %46
  tail call void @BN_BLINDING_set_current_thread(ptr noundef nonnull %55) #3
  br label %59

59:                                               ; preds = %45, %58, %57, %rsa_get_public_exp.exit.thread, %12
  %.036 = phi ptr [ null, %12 ], [ null, %rsa_get_public_exp.exit.thread ], [ %.137, %45 ], [ %.137, %57 ], [ %.137, %58 ]
  %.034 = phi ptr [ null, %12 ], [ null, %rsa_get_public_exp.exit.thread ], [ null, %45 ], [ null, %57 ], [ %55, %58 ]
  tail call void @BN_CTX_end(ptr noundef nonnull %.035) #3
  %.not = icmp eq ptr %.035, %1
  br i1 %.not, label %61, label %60

60:                                               ; preds = %59
  tail call void @BN_CTX_free(ptr noundef nonnull %.035) #3
  br label %61

61:                                               ; preds = %60, %59
  %62 = getelementptr inbounds nuw i8, ptr %0, i64 48
  %63 = load ptr, ptr %62, align 8, !tbaa !33
  %.not45 = icmp eq ptr %.036, %63
  br i1 %.not45, label %65, label %64

64:                                               ; preds = %61
  tail call void @BN_free(ptr noundef %.036) #3
  br label %65

65:                                               ; preds = %61, %64, %4
  %.0 = phi ptr [ null, %4 ], [ %.034, %64 ], [ %.034, %61 ]
  ret ptr %.0
}